target datalayout = "e-m:e-p270:32:32-p271:32:32-p272:64:64-i64:64-i128:128-f80:128-n8:16:32:64-S128"
target triple = "x86_64-pc-linux-gnu"

%struct.anon.805 = type { i32 }
%struct._err_stackitem = type { ptr, ptr }
%struct._ts = type { ptr, ptr, ptr, i64, %struct.anon.805, i32, i32, i32, i32, i32, i32, i32, i32, ptr, ptr, ptr, ptr, ptr, ptr, ptr, ptr, i32, ptr, i64, i64, ptr, i64, i32, ptr, ptr, ptr, i64, i64, ptr, ptr, ptr, %struct._err_stackitem, ptr, i64, ptr, ptr }

@_Py_tss_tstate = external thread_local global ptr, align 8

; Function Attrs: inlinehint nounwind uwtable
define internal ptr @_PyThreadState_GET() #3 {
  %1 = call align 8 ptr @llvm.threadlocal.address.p0(ptr align 8 @_Py_tss_tstate)
  %2 = load ptr, ptr %1, align 8, !tbaa !214
  ret ptr %2
}

; Function Attrs: noreturn nounwind uwtable
define dso_local void @Py_Exit(i32 noundef %0) #8 {
  %2 = alloca i32, align 4
  %3 = alloca ptr, align 8
  store i32 %0, ptr %2, align 4, !tbaa !4
  call void @llvm.lifetime.start.p0(i64 8, ptr %3) #14
  %4 = call ptr @_PyThreadState_GET()
  store ptr %4, ptr %3, align 8, !tbaa !214
  %5 = load ptr, ptr %3, align 8, !tbaa !214
  %6 = icmp ne ptr %5, null
  br i1 %6, label %7, label %15

7:                                                ; preds = %1
  %8 = load ptr, ptr %3, align 8, !tbaa !214
  %9 = call i32 @_PyThreadState_IsRunningMain(ptr noundef %8)
  %10 = icmp ne i32 %9, 0
  br i1 %10, label %11, label %15

11:                                               ; preds = %7
  %12 = load ptr, ptr %3, align 8, !tbaa !214
  %13 = getelementptr inbounds nuw %struct._ts, ptr %12, i32 0, i32 2
  %14 = load ptr, ptr %13, align 8, !tbaa !215
  call void @_PyInterpreterState_SetNotRunningMain(ptr noundef %14)
  br label %15

15:                                               ; preds = %11, %7, %1
  %16 = call i32 @_Py_Finalize(ptr noundef @_PyRuntime)
  %17 = icmp slt i32 %16, 0
  br i1 %17, label %18, label %19

18:                                               ; preds = %15
  store i32 120, ptr %2, align 4, !tbaa !4
  br label %19

19:                                               ; preds = %18, %15
  %20 = load i32, ptr %2, align 4, !tbaa !4
  call void @exit(i32 noundef %20) #17
  unreachable
}