; Function Attrs: noreturn nounwind uwtable
define dso_local void @Py_Exit(i32 noundef %0) local_unnamed_addr #11 {
  %2 = tail call align 8 ptr @llvm.threadlocal.address.p0(ptr align 8 @_Py_tss_tstate)
  %3 = load ptr, ptr %2, align 8, !tbaa !212
  %.not = icmp eq ptr %3, null
  br i1 %.not, label %9, label %4

4:                                                ; preds = %1
  %5 = tail call i32 @_PyThreadState_IsRunningMain(ptr noundef nonnull %3) #23
  %.not4 = icmp eq i32 %5, 0
  br i1 %.not4, label %9, label %6

6:                                                ; preds = %4
  %7 = getelementptr inbounds nuw i8, ptr %3, i64 16
  %8 = load ptr, ptr %7, align 8, !tbaa !228
  tail call void @_PyInterpreterState_SetNotRunningMain(ptr noundef %8) #23
  br label %9

9:                                                ; preds = %6, %4, %1
  %10 = tail call fastcc i32 @_Py_Finalize()
  %11 = icmp slt i32 %10, 0
  %spec.select = select i1 %11, i32 120, i32 %0
  tail call void @exit(i32 noundef %spec.select) #28
  unreachable
}